target datalayout = "e-m:e-p270:32:32-p271:32:32-p272:64:64-i64:64-i128:128-f80:128-n8:16:32:64-S128"
target triple = "x86_64-pc-linux-gnu"

%struct.AVFormatContext = type { ptr, ptr, ptr, ptr, ptr, i32, i32, ptr, i32, ptr, i32, ptr, ptr, i64, i64, i64, i32, i32, i32, i64, i64, ptr, i32, i32, ptr, i32, i32, i32, i32, ptr, i64, i32, i32, %struct.AVIOInterruptCB, i32, i32, i32, i32, i64, i32, i32, i32, i32, i32, i32, i32, i32, i32, i32, i32, i32, i64, i32, i32, i32, i32, i32, ptr, ptr, ptr, ptr, i32, ptr, ptr, ptr, ptr, i32, ptr, ptr, i64, ptr, ptr, ptr, i64 }
%struct.AVIOInterruptCB = type { ptr, ptr }
%struct.RTPMuxContext = type { ptr, ptr, ptr, i32, i32, ptr, i32, i32, i32, i32, i32, i32, i64, i64, i32, i32, i32, i32, ptr, ptr, i32, i32, i32, i32, i32 }

@.str = private unnamed_addr constant [23 x i8] c"rtp_send_data size=%d\0A\00", align 1

; Function Attrs: nounwind uwtable
define void @ff_rtp_send_data(ptr noundef %0, ptr noundef %1, i32 noundef %2, i32 noundef %3) #0 {
  %5 = alloca ptr, align 8
  %6 = alloca ptr, align 8
  %7 = alloca i32, align 4
  %8 = alloca i32, align 4
  %9 = alloca ptr, align 8
  store ptr %0, ptr %5, align 8, !tbaa !4
  store ptr %1, ptr %6, align 8, !tbaa !9
  store i32 %2, ptr %7, align 4, !tbaa !11
  store i32 %3, ptr %8, align 4, !tbaa !11
  call void @llvm.lifetime.start.p0(i64 8, ptr %9) #6
  %10 = load ptr, ptr %5, align 8, !tbaa !4
  %11 = getelementptr inbounds nuw %struct.AVFormatContext, ptr %10, i32 0, i32 3
  %12 = load ptr, ptr %11, align 8, !tbaa !13
  store ptr %12, ptr %9, align 8, !tbaa !28
  %13 = load ptr, ptr %5, align 8, !tbaa !4
  %14 = load i32, ptr %7, align 4, !tbaa !11
  call void (ptr, i32, ptr, ...) @av_log(ptr noundef %13, i32 noundef 56, ptr noundef @.str, i32 noundef %14)
  %15 = load ptr, ptr %5, align 8, !tbaa !4
  %16 = getelementptr inbounds nuw %struct.AVFormatContext, ptr %15, i32 0, i32 4
  %17 = load ptr, ptr %16, align 8, !tbaa !30
  call void @avio_w8(ptr noundef %17, i32 noundef 128)
  %18 = load ptr, ptr %5, align 8, !tbaa !4
  %19 = getelementptr inbounds nuw %struct.AVFormatContext, ptr %18, i32 0, i32 4
  %20 = load ptr, ptr %19, align 8, !tbaa !30
  %21 = load ptr, ptr %9, align 8, !tbaa !28
  %22 = getelementptr inbounds nuw %struct.RTPMuxContext, ptr %21, i32 0, i32 3
  %23 = load i32, ptr %22, align 8, !tbaa !31
  %24 = and i32 %23, 127
  %25 = load i32, ptr %8, align 4, !tbaa !11
  %26 = and i32 %25, 1
  %27 = shl i32 %26, 7
  %28 = or i32 %24, %27
  call void @avio_w8(ptr noundef %20, i32 noundef %28)
  %29 = load ptr, ptr %5, align 8, !tbaa !4
  %30 = getelementptr inbounds nuw %struct.AVFormatContext, ptr %29, i32 0, i32 4
  %31 = load ptr, ptr %30, align 8, !tbaa !30
  %32 = load ptr, ptr %9, align 8, !tbaa !28
  %33 = getelementptr inbounds nuw %struct.RTPMuxContext, ptr %32, i32 0, i32 6
  %34 = load i32, ptr %33, align 8, !tbaa !34
  call void @avio_wb16(ptr noundef %31, i32 noundef %34)
  %35 = load ptr, ptr %5, align 8, !tbaa !4
  %36 = getelementptr inbounds nuw %struct.AVFormatContext, ptr %35, i32 0, i32 4
  %37 = load ptr, ptr %36, align 8, !tbaa !30
  %38 = load ptr, ptr %9, align 8, !tbaa !28
  %39 = getelementptr inbounds nuw %struct.RTPMuxContext, ptr %38, i32 0, i32 7
  %40 = load i32, ptr %39, align 4, !tbaa !35
  call void @avio_wb32(ptr noundef %37, i32 noundef %40)
  %41 = load ptr, ptr %5, align 8, !tbaa !4
  %42 = getelementptr inbounds nuw %struct.AVFormatContext, ptr %41, i32 0, i32 4
  %43 = load ptr, ptr %42, align 8, !tbaa !30
  %44 = load ptr, ptr %9, align 8, !tbaa !28
  %45 = getelementptr inbounds nuw %struct.RTPMuxContext, ptr %44, i32 0, i32 4
  %46 = load i32, ptr %45, align 4, !tbaa !36
  call void @avio_wb32(ptr noundef %43, i32 noundef %46)
  %47 = load ptr, ptr %5, align 8, !tbaa !4
  %48 = getelementptr inbounds nuw %struct.AVFormatContext, ptr %47, i32 0, i32 4
  %49 = load ptr, ptr %48, align 8, !tbaa !30
  %50 = load ptr, ptr %6, align 8, !tbaa !9
  %51 = load i32, ptr %7, align 4, !tbaa !11
  call void @avio_write(ptr noundef %49, ptr noundef %50, i32 noundef %51)
  %52 = load ptr, ptr %5, align 8, !tbaa !4
  %53 = getelementptr inbounds nuw %struct.AVFormatContext, ptr %52, i32 0, i32 4
  %54 = load ptr, ptr %53, align 8, !tbaa !30
  call void @avio_flush(ptr noundef %54)
  %55 = load ptr, ptr %9, align 8, !tbaa !28
  %56 = getelementptr inbounds nuw %struct.RTPMuxContext, ptr %55, i32 0, i32 6
  %57 = load i32, ptr %56, align 8, !tbaa !34
  %58 = add nsw i32 %57, 1
  %59 = and i32 %58, 65535
  %60 = load ptr, ptr %9, align 8, !tbaa !28
  %61 = getelementptr inbounds nuw %struct.RTPMuxContext, ptr %60, i32 0, i32 6
  store i32 %59, ptr %61, align 8, !tbaa !34
  %62 = load i32, ptr %7, align 4, !tbaa !11
  %63 = load ptr, ptr %9, align 8, !tbaa !28
  %64 = getelementptr inbounds nuw %struct.RTPMuxContext, ptr %63, i32 0, i32 15
  %65 = load i32, ptr %64, align 4, !tbaa !37
  %66 = add i32 %65, %62
  store i32 %66, ptr %64, align 4, !tbaa !37
  %67 = load ptr, ptr %9, align 8, !tbaa !28
  %68 = getelementptr inbounds nuw %struct.RTPMuxContext, ptr %67, i32 0, i32 14
  %69 = load i32, ptr %68, align 8, !tbaa !38
  %70 = add i32 %69, 1
  store i32 %70, ptr %68, align 8, !tbaa !38
  call void @llvm.lifetime.end.p0(i64 8, ptr %9) #6
  ret void
}