; Function Attrs: nounwind uwtable
define void @ff_rtp_send_data(ptr noundef %0, ptr noundef %1, i32 noundef %2, i32 noundef %3) local_unnamed_addr #0 {
  %5 = getelementptr inbounds nuw i8, ptr %0, i64 24
  %6 = load ptr, ptr %5, align 8, !tbaa !4
  tail call void (ptr, i32, ptr, ...) @av_log(ptr noundef %0, i32 noundef 56, ptr noundef nonnull @.str, i32 noundef %2) #7
  %7 = getelementptr inbounds nuw i8, ptr %0, i64 32
  %8 = load ptr, ptr %7, align 8, !tbaa !24
  tail call void @avio_w8(ptr noundef %8, i32 noundef 128) #7
  %9 = load ptr, ptr %7, align 8, !tbaa !24
  %10 = getelementptr inbounds nuw i8, ptr %6, i64 24
  %11 = load i32, ptr %10, align 8, !tbaa !25
  %12 = and i32 %11, 127
  %13 = shl i32 %3, 7
  %14 = and i32 %13, 128
  %15 = or disjoint i32 %12, %14
  tail call void @avio_w8(ptr noundef %9, i32 noundef %15) #7
  %16 = load ptr, ptr %7, align 8, !tbaa !24
  %17 = getelementptr inbounds nuw i8, ptr %6, i64 40
  %18 = load i32, ptr %17, align 8, !tbaa !29
  tail call void @avio_wb16(ptr noundef %16, i32 noundef %18) #7
  %19 = load ptr, ptr %7, align 8, !tbaa !24
  %20 = getelementptr inbounds nuw i8, ptr %6, i64 44
  %21 = load i32, ptr %20, align 4, !tbaa !30
  tail call void @avio_wb32(ptr noundef %19, i32 noundef %21) #7
  %22 = load ptr, ptr %7, align 8, !tbaa !24
  %23 = getelementptr inbounds nuw i8, ptr %6, i64 28
  %24 = load i32, ptr %23, align 4, !tbaa !31
  tail call void @avio_wb32(ptr noundef %22, i32 noundef %24) #7
  %25 = load ptr, ptr %7, align 8, !tbaa !24
  tail call void @avio_write(ptr noundef %25, ptr noundef %1, i32 noundef %2) #7
  %26 = load ptr, ptr %7, align 8, !tbaa !24
  tail call void @avio_flush(ptr noundef %26) #7
  %27 = load i32, ptr %17, align 8, !tbaa !29
  %28 = add nsw i32 %27, 1
  %29 = and i32 %28, 65535
  store i32 %29, ptr %17, align 8, !tbaa !29
  %30 = getelementptr inbounds nuw i8, ptr %6, i64 84
  %31 = load i32, ptr %30, align 4, !tbaa !32
  %32 = add i32 %31, %2
  store i32 %32, ptr %30, align 4, !tbaa !32
  %33 = getelementptr inbounds nuw i8, ptr %6, i64 80
  %34 = load i32, ptr %33, align 8, !tbaa !33
  %35 = add i32 %34, 1
  store i32 %35, ptr %33, align 8, !tbaa !33
  ret void
}